target datalayout = "e-m:e-p270:32:32-p271:32:32-p272:64:64-i64:64-i128:128-f80:128-n8:16:32:64-S128"
target triple = "x86_64-pc-linux-gnu"

%struct.Plan = type { %"class.std::map", %class.EdgePriorityQueue, ptr, %"class.std::vector.3", i32, i32 }
%"class.std::map" = type { %"class.std::_Rb_tree" }
%"class.std::_Rb_tree" = type { %"struct.std::_Rb_tree<Edge *, std::pair<Edge *const, Plan::Want>, std::_Select1st<std::pair<Edge *const, Plan::Want>>, std::less<Edge *>>::_Rb_tree_impl" }
%"struct.std::_Rb_tree<Edge *, std::pair<Edge *const, Plan::Want>, std::_Select1st<std::pair<Edge *const, Plan::Want>>, std::less<Edge *>>::_Rb_tree_impl" = type { [8 x i8], %"struct.std::_Rb_tree_header" }
%"struct.std::_Rb_tree_header" = type { %"struct.std::_Rb_tree_node_base", i64 }
%"struct.std::_Rb_tree_node_base" = type { i32, ptr, ptr, ptr }
%class.EdgePriorityQueue = type { %"class.std::priority_queue.base", [7 x i8] }
%"class.std::priority_queue.base" = type <{ %"class.std::vector", i8 }>
%"class.std::vector" = type { %"struct.std::_Vector_base" }
%"struct.std::_Vector_base" = type { %"struct.std::_Vector_base<Edge *, std::allocator<Edge *>>::_Vector_impl" }
%"struct.std::_Vector_base<Edge *, std::allocator<Edge *>>::_Vector_impl" = type { %"struct.std::_Vector_base<Edge *, std::allocator<Edge *>>::_Vector_impl_data" }
%"struct.std::_Vector_base<Edge *, std::allocator<Edge *>>::_Vector_impl_data" = type { ptr, ptr, ptr }
%"class.std::vector.3" = type { %"struct.std::_Vector_base.4" }
%"struct.std::_Vector_base.4" = type { %"struct.std::_Vector_base<const Node *, std::allocator<const Node *>>::_Vector_impl" }
%"struct.std::_Vector_base<const Node *, std::allocator<const Node *>>::_Vector_impl" = type { %"struct.std::_Vector_base<const Node *, std::allocator<const Node *>>::_Vector_impl_data" }
%"struct.std::_Vector_base<const Node *, std::allocator<const Node *>>::_Vector_impl_data" = type { ptr, ptr, ptr }
%"class.std::__cxx11::basic_string" = type { %"struct.std::__cxx11::basic_string<char>::_Alloc_hider", i64, %union.anon }
%"struct.std::__cxx11::basic_string<char>::_Alloc_hider" = type { ptr }
%union.anon = type { i64, [8 x i8] }
%struct.Builder = type <{ ptr, ptr, %struct.Plan, %"class.std::unique_ptr", ptr, %"class.std::map.31", i64, %"class.std::__cxx11::basic_string", ptr, %"class.std::unique_ptr.37", %struct.DependencyScan, i32, [4 x i8] }>
%"class.std::unique_ptr" = type { %"struct.std::__uniq_ptr_data" }
%"struct.std::__uniq_ptr_data" = type { %"class.std::__uniq_ptr_impl" }
%"class.std::__uniq_ptr_impl" = type { %"class.std::tuple" }
%"class.std::tuple" = type { %"struct.std::_Tuple_impl" }
%"struct.std::_Tuple_impl" = type { %"struct.std::_Head_base.30" }
%"struct.std::_Head_base.30" = type { ptr }
%"class.std::map.31" = type { %"class.std::_Rb_tree.32" }
%"class.std::_Rb_tree.32" = type { %"struct.std::_Rb_tree<const Edge *, std::pair<const Edge *const, int>, std::_Select1st<std::pair<const Edge *const, int>>, std::less<const Edge *>>::_Rb_tree_impl" }
%"struct.std::_Rb_tree<const Edge *, std::pair<const Edge *const, int>, std::_Select1st<std::pair<const Edge *const, int>>, std::less<const Edge *>>::_Rb_tree_impl" = type { [8 x i8], %"struct.std::_Rb_tree_header" }
%"class.std::unique_ptr.37" = type { %"struct.std::__uniq_ptr_data.38" }
%"struct.std::__uniq_ptr_data.38" = type { %"class.std::__uniq_ptr_impl.39" }
%"class.std::__uniq_ptr_impl.39" = type { %"class.std::tuple.40" }
%"class.std::tuple.40" = type { %"struct.std::_Tuple_impl.41" }
%"struct.std::_Tuple_impl.41" = type { %"struct.std::_Head_base.44" }
%"struct.std::_Head_base.44" = type { ptr }
%struct.DependencyScan = type { ptr, ptr, %struct.ImplicitDepLoader, %struct.DyndepLoader, %struct.OptionalExplanations }
%struct.ImplicitDepLoader = type { ptr, ptr, ptr, ptr, ptr, %struct.OptionalExplanations }
%struct.DyndepLoader = type { ptr, ptr, %struct.OptionalExplanations }
%struct.OptionalExplanations = type { ptr }
%struct.DyndepFile = type { %"class.std::map.55" }
%"class.std::map.55" = type { %"class.std::_Rb_tree.56" }
%"class.std::_Rb_tree.56" = type { %"struct.std::_Rb_tree<Edge *, std::pair<Edge *const, Dyndeps>, std::_Select1st<std::pair<Edge *const, Dyndeps>>, std::less<Edge *>>::_Rb_tree_impl" }
%"struct.std::_Rb_tree<Edge *, std::pair<Edge *const, Dyndeps>, std::_Select1st<std::pair<Edge *const, Dyndeps>>, std::less<Edge *>>::_Rb_tree_impl" = type { [8 x i8], %"struct.std::_Rb_tree_header" }

; Function Attrs: mustprogress nounwind uwtable
define linkonce_odr dso_local void @_ZNSt15_Rb_tree_header8_M_resetEv(ptr noundef nonnull align 8 dereferenceable(40) %0) #1 comdat align 2 {
  %2 = alloca ptr, align 8
  store ptr %0, ptr %2, align 8, !tbaa !358
  %3 = load ptr, ptr %2, align 8
  %4 = getelementptr inbounds nuw %"struct.std::_Rb_tree_header", ptr %3, i32 0, i32 0
  %5 = getelementptr inbounds nuw %"struct.std::_Rb_tree_node_base", ptr %4, i32 0, i32 1
  store ptr null, ptr %5, align 8, !tbaa !363
  %6 = getelementptr inbounds nuw %"struct.std::_Rb_tree_header", ptr %3, i32 0, i32 0
  %7 = getelementptr inbounds nuw %"struct.std::_Rb_tree_header", ptr %3, i32 0, i32 0
  %8 = getelementptr inbounds nuw %"struct.std::_Rb_tree_node_base", ptr %7, i32 0, i32 2
  store ptr %6, ptr %8, align 8, !tbaa !364
  %9 = getelementptr inbounds nuw %"struct.std::_Rb_tree_header", ptr %3, i32 0, i32 0
  %10 = getelementptr inbounds nuw %"struct.std::_Rb_tree_header", ptr %3, i32 0, i32 0
  %11 = getelementptr inbounds nuw %"struct.std::_Rb_tree_node_base", ptr %10, i32 0, i32 3
  store ptr %9, ptr %11, align 8, !tbaa !365
  %12 = getelementptr inbounds nuw %"struct.std::_Rb_tree_header", ptr %3, i32 0, i32 1
  store i64 0, ptr %12, align 8, !tbaa !366
  ret void
}

; Function Attrs: mustprogress nounwind uwtable
define linkonce_odr dso_local void @_ZNSt15__new_allocatorISt13_Rb_tree_nodeISt4pairIKP4Edge7DyndepsEEEC2Ev(ptr noundef nonnull align 1 dereferenceable(1) %0) unnamed_addr #1 comdat align 2 {
  %2 = alloca ptr, align 8
  store ptr %0, ptr %2, align 8, !tbaa !693
  ret void
}

; Function Attrs: mustprogress nounwind uwtable
define linkonce_odr dso_local void @_ZNSt15_Rb_tree_headerC2Ev(ptr noundef nonnull align 8 dereferenceable(40) %0) unnamed_addr #1 comdat align 2 personality ptr @__gxx_personality_v0 {
  %2 = alloca ptr, align 8
  store ptr %0, ptr %2, align 8, !tbaa !358
  %3 = load ptr, ptr %2, align 8
  %4 = getelementptr inbounds nuw %"struct.std::_Rb_tree_header", ptr %3, i32 0, i32 0
  %5 = getelementptr inbounds nuw %"struct.std::_Rb_tree_node_base", ptr %4, i32 0, i32 0
  store i32 0, ptr %5, align 8, !tbaa !360
  invoke void @_ZNSt15_Rb_tree_header8_M_resetEv(ptr noundef nonnull align 8 dereferenceable(40) %3)
          to label %6 unwind label %7

6:                                                ; preds = %1
  ret void

7:                                                ; preds = %1
  %8 = landingpad { ptr, i32 }
          catch ptr null
  %9 = extractvalue { ptr, i32 } %8, 0
  call void @__clang_call_terminate(ptr %9) #19
  unreachable
}

; Function Attrs: mustprogress nounwind uwtable
define linkonce_odr dso_local void @_ZNSt20_Rb_tree_key_compareISt4lessIP4EdgeEEC2Ev(ptr noundef nonnull align 1 dereferenceable(1) %0) unnamed_addr #1 comdat align 2 {
  %2 = alloca ptr, align 8
  store ptr %0, ptr %2, align 8, !tbaa !356
  ret void
}

; Function Attrs: mustprogress nounwind uwtable
define linkonce_odr dso_local void @_ZNSaISt13_Rb_tree_nodeISt4pairIKP4Edge7DyndepsEEEC2Ev(ptr noundef nonnull align 1 dereferenceable(1) %0) unnamed_addr #1 comdat align 2 {
  %2 = alloca ptr, align 8
  store ptr %0, ptr %2, align 8, !tbaa !691
  %3 = load ptr, ptr %2, align 8
  call void @_ZNSt15__new_allocatorISt13_Rb_tree_nodeISt4pairIKP4Edge7DyndepsEEEC2Ev(ptr noundef nonnull align 1 dereferenceable(1) %3) #7
  ret void
}

; Function Attrs: mustprogress nounwind uwtable
define linkonce_odr dso_local void @_ZNSt8_Rb_treeIP4EdgeSt4pairIKS1_7DyndepsESt10_Select1stIS5_ESt4lessIS1_ESaIS5_EE13_Rb_tree_implIS9_Lb1EEC2Ev(ptr noundef nonnull align 8 dereferenceable(48) %0) unnamed_addr #1 comdat align 2 {
  %2 = alloca ptr, align 8
  store ptr %0, ptr %2, align 8, !tbaa !689
  %3 = load ptr, ptr %2, align 8
  call void @_ZNSaISt13_Rb_tree_nodeISt4pairIKP4Edge7DyndepsEEEC2Ev(ptr noundef nonnull align 1 dereferenceable(1) %3) #7
  call void @_ZNSt20_Rb_tree_key_compareISt4lessIP4EdgeEEC2Ev(ptr noundef nonnull align 1 dereferenceable(1) %3) #7
  %4 = getelementptr inbounds i8, ptr %3, i64 8
  call void @_ZNSt15_Rb_tree_headerC2Ev(ptr noundef nonnull align 8 dereferenceable(40) %4) #7
  ret void
}

; Function Attrs: mustprogress nounwind uwtable
define linkonce_odr dso_local void @_ZNSt8_Rb_treeIP4EdgeSt4pairIKS1_7DyndepsESt10_Select1stIS5_ESt4lessIS1_ESaIS5_EEC2Ev(ptr noundef nonnull align 8 dereferenceable(48) %0) unnamed_addr #1 comdat align 2 {
  %2 = alloca ptr, align 8
  store ptr %0, ptr %2, align 8, !tbaa !687
  %3 = load ptr, ptr %2, align 8
  %4 = getelementptr inbounds nuw %"class.std::_Rb_tree.56", ptr %3, i32 0, i32 0
  call void @_ZNSt8_Rb_treeIP4EdgeSt4pairIKS1_7DyndepsESt10_Select1stIS5_ESt4lessIS1_ESaIS5_EE13_Rb_tree_implIS9_Lb1EEC2Ev(ptr noundef nonnull align 8 dereferenceable(48) %4) #7
  ret void
}

; Function Attrs: mustprogress nounwind uwtable
define linkonce_odr dso_local void @_ZNSt3mapIP4Edge7DyndepsSt4lessIS1_ESaISt4pairIKS1_S2_EEEC2Ev(ptr noundef nonnull align 8 dereferenceable(48) %0) unnamed_addr #1 comdat align 2 {
  %2 = alloca ptr, align 8
  store ptr %0, ptr %2, align 8, !tbaa !187
  %3 = load ptr, ptr %2, align 8
  %4 = getelementptr inbounds nuw %"class.std::map.55", ptr %3, i32 0, i32 0
  call void @_ZNSt8_Rb_treeIP4EdgeSt4pairIKS1_7DyndepsESt10_Select1stIS5_ESt4lessIS1_ESaIS5_EEC2Ev(ptr noundef nonnull align 8 dereferenceable(48) %4) #7
  ret void
}

; Function Attrs: inlinehint mustprogress nounwind uwtable
define linkonce_odr dso_local void @_ZN10DyndepFileC2Ev(ptr noundef nonnull align 8 dereferenceable(48) %0) unnamed_addr #5 comdat align 2 {
  %2 = alloca ptr, align 8
  store ptr %0, ptr %2, align 8, !tbaa !173
  %3 = load ptr, ptr %2, align 8
  call void @_ZNSt3mapIP4Edge7DyndepsSt4lessIS1_ESaISt4pairIKS1_S2_EEEC2Ev(ptr noundef nonnull align 8 dereferenceable(48) %3) #7
  ret void
}

; Function Attrs: mustprogress uwtable
define dso_local noundef zeroext i1 @_ZN7Builder11LoadDyndepsEP4NodePNSt7__cxx1112basic_stringIcSt11char_traitsIcESaIcEEE(ptr noundef nonnull align 8 dereferenceable(356) %0, ptr noundef %1, ptr noundef %2) #0 align 2 personality ptr @__gxx_personality_v0 {
  %4 = alloca i1, align 1
  %5 = alloca ptr, align 8
  %6 = alloca ptr, align 8
  %7 = alloca ptr, align 8
  %8 = alloca %struct.DyndepFile, align 8
  %9 = alloca ptr, align 8
  %10 = alloca i32, align 4
  %11 = alloca i32, align 4
  store ptr %0, ptr %5, align 8, !tbaa !9
  store ptr %1, ptr %6, align 8, !tbaa !46
  store ptr %2, ptr %7, align 8, !tbaa !48
  %12 = load ptr, ptr %5, align 8
  call void @llvm.lifetime.start.p0(i64 48, ptr %8) #7
  call void @_ZN10DyndepFileC2Ev(ptr noundef nonnull align 8 dereferenceable(48) %8) #7
  %13 = getelementptr inbounds nuw %struct.Builder, ptr %12, i32 0, i32 10
  %14 = load ptr, ptr %6, align 8, !tbaa !46
  %15 = load ptr, ptr %7, align 8, !tbaa !48
  %16 = invoke noundef zeroext i1 @_ZNK14DependencyScan11LoadDyndepsEP4NodeP10DyndepFilePNSt7__cxx1112basic_stringIcSt11char_traitsIcESaIcEEE(ptr noundef nonnull align 8 dereferenceable(96) %13, ptr noundef %14, ptr noundef %8, ptr noundef %15)
          to label %17 unwind label %19

17:                                               ; preds = %3
  br i1 %16, label %23, label %18

18:                                               ; preds = %17
  store i1 false, ptr %4, align 1
  store i32 1, ptr %11, align 4
  br label %32

19:                                               ; preds = %23, %3
  %20 = landingpad { ptr, i32 }
          cleanup
  %21 = extractvalue { ptr, i32 } %20, 0
  store ptr %21, ptr %9, align 8
  %22 = extractvalue { ptr, i32 } %20, 1
  store i32 %22, ptr %10, align 4
  call void @_ZNSt3mapIP4Edge7DyndepsSt4lessIS1_ESaISt4pairIKS1_S2_EEED2Ev(ptr noundef nonnull align 8 dereferenceable(48) %8) #7
  call void @llvm.lifetime.end.p0(i64 48, ptr %8) #7
  br label %34

23:                                               ; preds = %17
  %24 = getelementptr inbounds nuw %struct.Builder, ptr %12, i32 0, i32 2
  %25 = getelementptr inbounds nuw %struct.Builder, ptr %12, i32 0, i32 10
  %26 = load ptr, ptr %6, align 8, !tbaa !46
  %27 = load ptr, ptr %7, align 8, !tbaa !48
  %28 = invoke noundef zeroext i1 @_ZN4Plan13DyndepsLoadedEP14DependencyScanPK4NodeRK10DyndepFilePNSt7__cxx1112basic_stringIcSt11char_traitsIcESaIcEEE(ptr noundef nonnull align 8 dereferenceable(120) %24, ptr noundef %25, ptr noundef %26, ptr noundef nonnull align 8 dereferenceable(48) %8, ptr noundef %27)
          to label %29 unwind label %19

29:                                               ; preds = %23
  br i1 %28, label %31, label %30

30:                                               ; preds = %29
  store i1 false, ptr %4, align 1
  store i32 1, ptr %11, align 4
  br label %32

31:                                               ; preds = %29
  store i1 true, ptr %4, align 1
  store i32 1, ptr %11, align 4
  br label %32

32:                                               ; preds = %31, %30, %18
  call void @_ZNSt3mapIP4Edge7DyndepsSt4lessIS1_ESaISt4pairIKS1_S2_EEED2Ev(ptr noundef nonnull align 8 dereferenceable(48) %8) #7
  call void @llvm.lifetime.end.p0(i64 48, ptr %8) #7
  %33 = load i1, ptr %4, align 1
  ret i1 %33

34:                                               ; preds = %19
  %35 = load ptr, ptr %9, align 8
  %36 = load i32, ptr %10, align 4
  %37 = insertvalue { ptr, i32 } poison, ptr %35, 0
  %38 = insertvalue { ptr, i32 } %37, i32 %36, 1
  resume { ptr, i32 } %38
}